ARM GAS  C:\Users\raphu\AppData\Local\Temp\ccyybXpb.s 			page 1


   1              		.syntax unified
   2              		.cpu cortex-m3
   3              		.fpu softvfp
   4              		.eabi_attribute 20, 1
   5              		.eabi_attribute 21, 1
   6              		.eabi_attribute 23, 3
   7              		.eabi_attribute 24, 1
   8              		.eabi_attribute 25, 1
   9              		.eabi_attribute 26, 1
  10              		.eabi_attribute 30, 1
  11              		.eabi_attribute 34, 1
  12              		.eabi_attribute 18, 4
  13              		.thumb
  14              		.syntax unified
  15              		.file	"functions.c"
  16              		.text
  17              	.Ltext0:
  18              		.cfi_sections	.debug_frame
  19              		.section	.text.initialize,"ax",%progbits
  20              		.align	2
  21              		.global	initialize
  22              		.thumb
  23              		.thumb_func
  24              		.type	initialize, %function
  25              	initialize:
  26              	.LFB63:
  27              		.file 1 "functions.c"
   1:functions.c   **** /**
   2:functions.c   **** * C file: write all the functions that are listed in the header file corresponding
   3:functions.c   **** * All imports and include should be done in header file
   4:functions.c   **** */
   5:functions.c   **** #include "functions.h"
   6:functions.c   **** #define MIN_SERVO 500
   7:functions.c   **** #define MAX_SERVO 2508
   8:functions.c   **** #define SERVO_ANGLE (MAX_SERVO - MIN_SERVO)/180
   9:functions.c   **** 
  10:functions.c   **** 
  11:functions.c   **** int mode = 0;  // 1 = glimball | 0 = test
  12:functions.c   **** int test_mode = 0; // potentiomètre = 1 | keypad = 0
  13:functions.c   **** 
  14:functions.c   **** void initialize(){
  28              		.loc 1 14 0
  29              		.cfi_startproc
  30              		@ args = 0, pretend = 0, frame = 0
  31              		@ frame_needed = 0, uses_anonymous_args = 0
  32 0000 08B5     		push	{r3, lr}
  33              		.cfi_def_cfa_offset 8
  34              		.cfi_offset 3, -8
  35              		.cfi_offset 14, -4
  15:functions.c   ****     LCD_Start();
  36              		.loc 1 15 0
  37 0002 FFF7FEFF 		bl	LCD_Start
  38              	.LVL0:
  16:functions.c   ****     LCD_ClearDisplay();
  39              		.loc 1 16 0
  40 0006 0120     		movs	r0, #1
  41 0008 FFF7FEFF 		bl	LCD_WriteControl
ARM GAS  C:\Users\raphu\AppData\Local\Temp\ccyybXpb.s 			page 2


  42              	.LVL1:
  17:functions.c   ****     PWM_Init();
  43              		.loc 1 17 0
  44 000c FFF7FEFF 		bl	PWM_Init
  45              	.LVL2:
  18:functions.c   ****     PWM_Start();
  46              		.loc 1 18 0
  47 0010 FFF7FEFF 		bl	PWM_Start
  48              	.LVL3:
  19:functions.c   ****     Mux_Start();
  49              		.loc 1 19 0
  50 0014 FFF7FEFF 		bl	Mux_Start
  51              	.LVL4:
  20:functions.c   ****     ADC_Start();
  52              		.loc 1 20 0
  53 0018 FFF7FEFF 		bl	ADC_Start
  54              	.LVL5:
  21:functions.c   ****     keypadInit();
  55              		.loc 1 21 0
  56 001c FFF7FEFF 		bl	keypadInit
  57              	.LVL6:
  58 0020 08BD     		pop	{r3, pc}
  59              		.cfi_endproc
  60              	.LFE63:
  61              		.size	initialize, .-initialize
  62 0022 00BF     		.section	.text.light_LEDS,"ax",%progbits
  63              		.align	2
  64              		.global	light_LEDS
  65              		.thumb
  66              		.thumb_func
  67              		.type	light_LEDS, %function
  68              	light_LEDS:
  69              	.LFB64:
  22:functions.c   **** }
  23:functions.c   **** 
  24:functions.c   **** 
  25:functions.c   **** void light_LEDS(){
  70              		.loc 1 25 0
  71              		.cfi_startproc
  72              		@ args = 0, pretend = 0, frame = 0
  73              		@ frame_needed = 0, uses_anonymous_args = 0
  74 0000 08B5     		push	{r3, lr}
  75              		.cfi_def_cfa_offset 8
  76              		.cfi_offset 3, -8
  77              		.cfi_offset 14, -4
  26:functions.c   ****     LED1_Write(1);
  78              		.loc 1 26 0
  79 0002 0120     		movs	r0, #1
  80 0004 FFF7FEFF 		bl	LED1_Write
  81              	.LVL7:
  27:functions.c   ****     LED2_Write(1);
  82              		.loc 1 27 0
  83 0008 0120     		movs	r0, #1
  84 000a FFF7FEFF 		bl	LED2_Write
  85              	.LVL8:
  28:functions.c   ****     LED3_Write(1),
  86              		.loc 1 28 0
ARM GAS  C:\Users\raphu\AppData\Local\Temp\ccyybXpb.s 			page 3


  87 000e 0120     		movs	r0, #1
  88 0010 FFF7FEFF 		bl	LED3_Write
  89              	.LVL9:
  29:functions.c   ****     LED4_Write(1);
  90              		.loc 1 29 0
  91 0014 0120     		movs	r0, #1
  92 0016 FFF7FEFF 		bl	LED4_Write
  93              	.LVL10:
  94 001a 08BD     		pop	{r3, pc}
  95              		.cfi_endproc
  96              	.LFE64:
  97              		.size	light_LEDS, .-light_LEDS
  98              		.section	.text.turn_off_LEDS,"ax",%progbits
  99              		.align	2
 100              		.global	turn_off_LEDS
 101              		.thumb
 102              		.thumb_func
 103              		.type	turn_off_LEDS, %function
 104              	turn_off_LEDS:
 105              	.LFB65:
  30:functions.c   **** }
  31:functions.c   **** 
  32:functions.c   **** void turn_off_LEDS(){
 106              		.loc 1 32 0
 107              		.cfi_startproc
 108              		@ args = 0, pretend = 0, frame = 0
 109              		@ frame_needed = 0, uses_anonymous_args = 0
 110 0000 08B5     		push	{r3, lr}
 111              		.cfi_def_cfa_offset 8
 112              		.cfi_offset 3, -8
 113              		.cfi_offset 14, -4
  33:functions.c   ****     LED1_Write(0);
 114              		.loc 1 33 0
 115 0002 0020     		movs	r0, #0
 116 0004 FFF7FEFF 		bl	LED1_Write
 117              	.LVL11:
  34:functions.c   ****     LED2_Write(0);
 118              		.loc 1 34 0
 119 0008 0020     		movs	r0, #0
 120 000a FFF7FEFF 		bl	LED2_Write
 121              	.LVL12:
  35:functions.c   ****     LED3_Write(0),
 122              		.loc 1 35 0
 123 000e 0020     		movs	r0, #0
 124 0010 FFF7FEFF 		bl	LED3_Write
 125              	.LVL13:
  36:functions.c   ****     LED4_Write(0);
 126              		.loc 1 36 0
 127 0014 0020     		movs	r0, #0
 128 0016 FFF7FEFF 		bl	LED4_Write
 129              	.LVL14:
 130 001a 08BD     		pop	{r3, pc}
 131              		.cfi_endproc
 132              	.LFE65:
 133              		.size	turn_off_LEDS, .-turn_off_LEDS
 134              		.section	.text.error,"ax",%progbits
 135              		.align	2
ARM GAS  C:\Users\raphu\AppData\Local\Temp\ccyybXpb.s 			page 4


 136              		.global	error
 137              		.thumb
 138              		.thumb_func
 139              		.type	error, %function
 140              	error:
 141              	.LFB71:
  37:functions.c   **** }
  38:functions.c   **** 
  39:functions.c   **** void switch_to_glimball_mode(){
  40:functions.c   ****     mode = 1;
  41:functions.c   ****     light_LEDS();
  42:functions.c   ****     const char8* var = "Glim";
  43:functions.c   ****     print_screen(var);
  44:functions.c   **** }
  45:functions.c   **** 
  46:functions.c   **** void switch_to_test_mode(){
  47:functions.c   ****     mode = 0;
  48:functions.c   ****     turn_off_LEDS();
  49:functions.c   ****     const char8* var = "Test";
  50:functions.c   ****     print_screen(var);
  51:functions.c   **** }
  52:functions.c   **** 
  53:functions.c   **** 
  54:functions.c   **** void read_SW1(){
  55:functions.c   ****     if (SW1_Read()){
  56:functions.c   ****         CyDelay(200);
  57:functions.c   ****         switch_mode();
  58:functions.c   ****     }
  59:functions.c   **** }
  60:functions.c   **** 
  61:functions.c   **** void read_SW2(){
  62:functions.c   ****     if (!mode && SW2_Read()){
  63:functions.c   ****         CyDelay(200);
  64:functions.c   ****         if (test_mode) {
  65:functions.c   ****             test_mode = 0;
  66:functions.c   ****             const char8* var = "keypad";
  67:functions.c   ****             print_screen(var);
  68:functions.c   ****         }
  69:functions.c   ****         else if (!test_mode){
  70:functions.c   ****             test_mode = 1;
  71:functions.c   ****             const char8* var = "pot";
  72:functions.c   ****             print_screen(var);
  73:functions.c   ****         } 
  74:functions.c   ****     }
  75:functions.c   **** }
  76:functions.c   **** 
  77:functions.c   **** void switch_mode(){
  78:functions.c   ****     if (mode){
  79:functions.c   ****         switch_to_test_mode();
  80:functions.c   ****     }
  81:functions.c   ****     else if (!mode){
  82:functions.c   ****         switch_to_glimball_mode();
  83:functions.c   ****     }
  84:functions.c   ****     else{
  85:functions.c   ****         error();
  86:functions.c   ****     }
  87:functions.c   **** }
ARM GAS  C:\Users\raphu\AppData\Local\Temp\ccyybXpb.s 			page 5


  88:functions.c   **** 
  89:functions.c   **** void error(){
 142              		.loc 1 89 0
 143              		.cfi_startproc
 144              		@ args = 0, pretend = 0, frame = 0
 145              		@ frame_needed = 0, uses_anonymous_args = 0
 146 0000 08B5     		push	{r3, lr}
 147              		.cfi_def_cfa_offset 8
 148              		.cfi_offset 3, -8
 149              		.cfi_offset 14, -4
  90:functions.c   ****     LCD_Position(0,0);
 150              		.loc 1 90 0
 151 0002 0021     		movs	r1, #0
 152 0004 0846     		mov	r0, r1
 153 0006 FFF7FEFF 		bl	LCD_Position
 154              	.LVL15:
  91:functions.c   ****     LCD_PrintString("ERROR");
 155              		.loc 1 91 0
 156 000a 0348     		ldr	r0, .L9
 157 000c FFF7FEFF 		bl	LCD_PrintString
 158              	.LVL16:
  92:functions.c   ****     CyDelay(100000);
 159              		.loc 1 92 0
 160 0010 0248     		ldr	r0, .L9+4
 161 0012 FFF7FEFF 		bl	CyDelay
 162              	.LVL17:
 163 0016 08BD     		pop	{r3, pc}
 164              	.L10:
 165              		.align	2
 166              	.L9:
 167 0018 00000000 		.word	.LC0
 168 001c A0860100 		.word	100000
 169              		.cfi_endproc
 170              	.LFE71:
 171              		.size	error, .-error
 172              		.section	.text.rotate_left,"ax",%progbits
 173              		.align	2
 174              		.global	rotate_left
 175              		.thumb
 176              		.thumb_func
 177              		.type	rotate_left, %function
 178              	rotate_left:
 179              	.LFB72:
  93:functions.c   **** }
  94:functions.c   **** 
  95:functions.c   **** void rotate_left(){
 180              		.loc 1 95 0
 181              		.cfi_startproc
 182              		@ args = 0, pretend = 0, frame = 0
 183              		@ frame_needed = 0, uses_anonymous_args = 0
 184 0000 10B5     		push	{r4, lr}
 185              		.cfi_def_cfa_offset 8
 186              		.cfi_offset 4, -8
 187              		.cfi_offset 14, -4
  96:functions.c   ****     uint16 pos = PWM_ReadCompare();
 188              		.loc 1 96 0
 189 0002 FFF7FEFF 		bl	PWM_ReadCompare
ARM GAS  C:\Users\raphu\AppData\Local\Temp\ccyybXpb.s 			page 6


 190              	.LVL18:
 191 0006 0446     		mov	r4, r0
 192              	.LVL19:
  97:functions.c   ****     LCD_ClearDisplay();
 193              		.loc 1 97 0
 194 0008 0120     		movs	r0, #1
 195 000a FFF7FEFF 		bl	LCD_WriteControl
 196              	.LVL20:
  98:functions.c   ****     LCD_PrintDecUint16(pos);
 197              		.loc 1 98 0
 198 000e 2046     		mov	r0, r4
 199 0010 FFF7FEFF 		bl	LCD_PrintU32Number
 200              	.LVL21:
  99:functions.c   ****     pos -= 10*SERVO_ANGLE;
 201              		.loc 1 99 0
 202 0014 A4F16F00 		sub	r0, r4, #111
 203 0018 80B2     		uxth	r0, r0
 204              	.LVL22:
 100:functions.c   ****     if (pos < MIN_SERVO) pos = MIN_SERVO;
 205              		.loc 1 100 0
 206 001a B0F5FA7F 		cmp	r0, #500
 207 001e 01D2     		bcs	.L12
 208 0020 4FF4FA70 		mov	r0, #500
 209              	.LVL23:
 210              	.L12:
 101:functions.c   ****     PWM_WriteCompare(pos);
 211              		.loc 1 101 0
 212 0024 FFF7FEFF 		bl	PWM_WriteCompare
 213              	.LVL24:
 102:functions.c   ****     CyDelay(50);
 214              		.loc 1 102 0
 215 0028 3220     		movs	r0, #50
 216 002a FFF7FEFF 		bl	CyDelay
 217              	.LVL25:
 218 002e 10BD     		pop	{r4, pc}
 219              		.cfi_endproc
 220              	.LFE72:
 221              		.size	rotate_left, .-rotate_left
 222              		.section	.text.rotate_right,"ax",%progbits
 223              		.align	2
 224              		.global	rotate_right
 225              		.thumb
 226              		.thumb_func
 227              		.type	rotate_right, %function
 228              	rotate_right:
 229              	.LFB73:
 103:functions.c   **** }
 104:functions.c   **** 
 105:functions.c   **** 
 106:functions.c   **** void rotate_right(){
 230              		.loc 1 106 0
 231              		.cfi_startproc
 232              		@ args = 0, pretend = 0, frame = 0
 233              		@ frame_needed = 0, uses_anonymous_args = 0
 234 0000 10B5     		push	{r4, lr}
 235              		.cfi_def_cfa_offset 8
 236              		.cfi_offset 4, -8
ARM GAS  C:\Users\raphu\AppData\Local\Temp\ccyybXpb.s 			page 7


 237              		.cfi_offset 14, -4
 238              	.LVL26:
 107:functions.c   ****     uint16 pos = 0;
 108:functions.c   ****     pos = PWM_ReadCompare();
 239              		.loc 1 108 0
 240 0002 FFF7FEFF 		bl	PWM_ReadCompare
 241              	.LVL27:
 242 0006 0446     		mov	r4, r0
 243              	.LVL28:
 109:functions.c   ****     LCD_ClearDisplay();
 244              		.loc 1 109 0
 245 0008 0120     		movs	r0, #1
 246 000a FFF7FEFF 		bl	LCD_WriteControl
 247              	.LVL29:
 110:functions.c   ****     LCD_PrintDecUint16(pos);
 248              		.loc 1 110 0
 249 000e 2046     		mov	r0, r4
 250 0010 FFF7FEFF 		bl	LCD_PrintU32Number
 251              	.LVL30:
 111:functions.c   ****     pos += 10*SERVO_ANGLE;
 252              		.loc 1 111 0
 253 0014 04F16F00 		add	r0, r4, #111
 254 0018 80B2     		uxth	r0, r0
 255              	.LVL31:
 112:functions.c   ****     if (pos > MAX_SERVO) pos = MAX_SERVO;
 256              		.loc 1 112 0
 257 001a 40F6CC13 		movw	r3, #2508
 258 001e 9842     		cmp	r0, r3
 259 0020 00D9     		bls	.L16
 260 0022 1846     		mov	r0, r3
 261              	.LVL32:
 262              	.L16:
 113:functions.c   ****     PWM_WriteCompare(pos);
 263              		.loc 1 113 0
 264 0024 FFF7FEFF 		bl	PWM_WriteCompare
 265              	.LVL33:
 114:functions.c   ****     CyDelay(50);
 266              		.loc 1 114 0
 267 0028 3220     		movs	r0, #50
 268 002a FFF7FEFF 		bl	CyDelay
 269              	.LVL34:
 270 002e 10BD     		pop	{r4, pc}
 271              		.cfi_endproc
 272              	.LFE73:
 273              		.size	rotate_right, .-rotate_right
 274              		.section	.text.print_screen,"ax",%progbits
 275              		.align	2
 276              		.global	print_screen
 277              		.thumb
 278              		.thumb_func
 279              		.type	print_screen, %function
 280              	print_screen:
 281              	.LFB75:
 115:functions.c   ****     
 116:functions.c   **** }
 117:functions.c   **** 
 118:functions.c   **** 
ARM GAS  C:\Users\raphu\AppData\Local\Temp\ccyybXpb.s 			page 8


 119:functions.c   **** void react_to_keypad(){
 120:functions.c   ****     uint8_t value = keypadScan();
 121:functions.c   ****     if (value != 'z'){
 122:functions.c   ****         if ( value == '1'){
 123:functions.c   ****             CyDelay(200);
 124:functions.c   ****             switch_mode();
 125:functions.c   ****         } 
 126:functions.c   ****         else if (!mode && !test_mode){
 127:functions.c   ****             if (value == '2'){
 128:functions.c   ****                 CyDelay(100);
 129:functions.c   ****                 rotate_left();
 130:functions.c   ****             }
 131:functions.c   ****             else if(value == '3'){
 132:functions.c   ****                 CyDelay(100);
 133:functions.c   ****                 rotate_right();
 134:functions.c   ****             }
 135:functions.c   ****         }
 136:functions.c   ****     }
 137:functions.c   **** }
 138:functions.c   **** 
 139:functions.c   **** void print_screen(const char8 * string){
 282              		.loc 1 139 0
 283              		.cfi_startproc
 284              		@ args = 0, pretend = 0, frame = 0
 285              		@ frame_needed = 0, uses_anonymous_args = 0
 286              	.LVL35:
 287 0000 10B5     		push	{r4, lr}
 288              		.cfi_def_cfa_offset 8
 289              		.cfi_offset 4, -8
 290              		.cfi_offset 14, -4
 291 0002 0446     		mov	r4, r0
 140:functions.c   ****     LCD_ClearDisplay();
 292              		.loc 1 140 0
 293 0004 0120     		movs	r0, #1
 294              	.LVL36:
 295 0006 FFF7FEFF 		bl	LCD_WriteControl
 296              	.LVL37:
 141:functions.c   ****     LCD_Position(0,0);
 297              		.loc 1 141 0
 298 000a 0021     		movs	r1, #0
 299 000c 0846     		mov	r0, r1
 300 000e FFF7FEFF 		bl	LCD_Position
 301              	.LVL38:
 142:functions.c   ****     LCD_PrintString(string);
 302              		.loc 1 142 0
 303 0012 2046     		mov	r0, r4
 304 0014 FFF7FEFF 		bl	LCD_PrintString
 305              	.LVL39:
 306 0018 10BD     		pop	{r4, pc}
 307              		.cfi_endproc
 308              	.LFE75:
 309              		.size	print_screen, .-print_screen
 310 001a 00BF     		.section	.text.switch_to_glimball_mode,"ax",%progbits
 311              		.align	2
 312              		.global	switch_to_glimball_mode
 313              		.thumb
 314              		.thumb_func
ARM GAS  C:\Users\raphu\AppData\Local\Temp\ccyybXpb.s 			page 9


 315              		.type	switch_to_glimball_mode, %function
 316              	switch_to_glimball_mode:
 317              	.LFB66:
  39:functions.c   ****     mode = 1;
 318              		.loc 1 39 0
 319              		.cfi_startproc
 320              		@ args = 0, pretend = 0, frame = 0
 321              		@ frame_needed = 0, uses_anonymous_args = 0
 322 0000 08B5     		push	{r3, lr}
 323              		.cfi_def_cfa_offset 8
 324              		.cfi_offset 3, -8
 325              		.cfi_offset 14, -4
  40:functions.c   ****     light_LEDS();
 326              		.loc 1 40 0
 327 0002 0122     		movs	r2, #1
 328 0004 034B     		ldr	r3, .L23
 329 0006 1A60     		str	r2, [r3]
  41:functions.c   ****     const char8* var = "Glim";
 330              		.loc 1 41 0
 331 0008 FFF7FEFF 		bl	light_LEDS
 332              	.LVL40:
  43:functions.c   **** }
 333              		.loc 1 43 0
 334 000c 0248     		ldr	r0, .L23+4
 335 000e FFF7FEFF 		bl	print_screen
 336              	.LVL41:
 337 0012 08BD     		pop	{r3, pc}
 338              	.L24:
 339              		.align	2
 340              	.L23:
 341 0014 00000000 		.word	.LANCHOR0
 342 0018 08000000 		.word	.LC1
 343              		.cfi_endproc
 344              	.LFE66:
 345              		.size	switch_to_glimball_mode, .-switch_to_glimball_mode
 346              		.section	.text.switch_to_test_mode,"ax",%progbits
 347              		.align	2
 348              		.global	switch_to_test_mode
 349              		.thumb
 350              		.thumb_func
 351              		.type	switch_to_test_mode, %function
 352              	switch_to_test_mode:
 353              	.LFB67:
  46:functions.c   ****     mode = 0;
 354              		.loc 1 46 0
 355              		.cfi_startproc
 356              		@ args = 0, pretend = 0, frame = 0
 357              		@ frame_needed = 0, uses_anonymous_args = 0
 358 0000 08B5     		push	{r3, lr}
 359              		.cfi_def_cfa_offset 8
 360              		.cfi_offset 3, -8
 361              		.cfi_offset 14, -4
  47:functions.c   ****     turn_off_LEDS();
 362              		.loc 1 47 0
 363 0002 0022     		movs	r2, #0
 364 0004 034B     		ldr	r3, .L27
 365 0006 1A60     		str	r2, [r3]
ARM GAS  C:\Users\raphu\AppData\Local\Temp\ccyybXpb.s 			page 10


  48:functions.c   ****     const char8* var = "Test";
 366              		.loc 1 48 0
 367 0008 FFF7FEFF 		bl	turn_off_LEDS
 368              	.LVL42:
  50:functions.c   **** }
 369              		.loc 1 50 0
 370 000c 0248     		ldr	r0, .L27+4
 371 000e FFF7FEFF 		bl	print_screen
 372              	.LVL43:
 373 0012 08BD     		pop	{r3, pc}
 374              	.L28:
 375              		.align	2
 376              	.L27:
 377 0014 00000000 		.word	.LANCHOR0
 378 0018 10000000 		.word	.LC2
 379              		.cfi_endproc
 380              	.LFE67:
 381              		.size	switch_to_test_mode, .-switch_to_test_mode
 382              		.section	.text.switch_mode,"ax",%progbits
 383              		.align	2
 384              		.global	switch_mode
 385              		.thumb
 386              		.thumb_func
 387              		.type	switch_mode, %function
 388              	switch_mode:
 389              	.LFB70:
  77:functions.c   ****     if (mode){
 390              		.loc 1 77 0
 391              		.cfi_startproc
 392              		@ args = 0, pretend = 0, frame = 0
 393              		@ frame_needed = 0, uses_anonymous_args = 0
 394 0000 08B5     		push	{r3, lr}
 395              		.cfi_def_cfa_offset 8
 396              		.cfi_offset 3, -8
 397              		.cfi_offset 14, -4
  78:functions.c   ****         switch_to_test_mode();
 398              		.loc 1 78 0
 399 0002 064B     		ldr	r3, .L34
 400 0004 1B68     		ldr	r3, [r3]
 401 0006 13B1     		cbz	r3, .L30
  79:functions.c   ****     }
 402              		.loc 1 79 0
 403 0008 FFF7FEFF 		bl	switch_to_test_mode
 404              	.LVL44:
 405 000c 08BD     		pop	{r3, pc}
 406              	.L30:
  81:functions.c   ****         switch_to_glimball_mode();
 407              		.loc 1 81 0
 408 000e 13B9     		cbnz	r3, .L32
  82:functions.c   ****     }
 409              		.loc 1 82 0
 410 0010 FFF7FEFF 		bl	switch_to_glimball_mode
 411              	.LVL45:
 412 0014 08BD     		pop	{r3, pc}
 413              	.L32:
  85:functions.c   ****     }
 414              		.loc 1 85 0
ARM GAS  C:\Users\raphu\AppData\Local\Temp\ccyybXpb.s 			page 11


 415 0016 FFF7FEFF 		bl	error
 416              	.LVL46:
 417 001a 08BD     		pop	{r3, pc}
 418              	.L35:
 419              		.align	2
 420              	.L34:
 421 001c 00000000 		.word	.LANCHOR0
 422              		.cfi_endproc
 423              	.LFE70:
 424              		.size	switch_mode, .-switch_mode
 425              		.section	.text.read_SW1,"ax",%progbits
 426              		.align	2
 427              		.global	read_SW1
 428              		.thumb
 429              		.thumb_func
 430              		.type	read_SW1, %function
 431              	read_SW1:
 432              	.LFB68:
  54:functions.c   ****     if (SW1_Read()){
 433              		.loc 1 54 0
 434              		.cfi_startproc
 435              		@ args = 0, pretend = 0, frame = 0
 436              		@ frame_needed = 0, uses_anonymous_args = 0
 437 0000 08B5     		push	{r3, lr}
 438              		.cfi_def_cfa_offset 8
 439              		.cfi_offset 3, -8
 440              		.cfi_offset 14, -4
  55:functions.c   ****         CyDelay(200);
 441              		.loc 1 55 0
 442 0002 FFF7FEFF 		bl	SW1_Read
 443              	.LVL47:
 444 0006 20B1     		cbz	r0, .L36
  56:functions.c   ****         switch_mode();
 445              		.loc 1 56 0
 446 0008 C820     		movs	r0, #200
 447 000a FFF7FEFF 		bl	CyDelay
 448              	.LVL48:
  57:functions.c   ****     }
 449              		.loc 1 57 0
 450 000e FFF7FEFF 		bl	switch_mode
 451              	.LVL49:
 452              	.L36:
 453 0012 08BD     		pop	{r3, pc}
 454              		.cfi_endproc
 455              	.LFE68:
 456              		.size	read_SW1, .-read_SW1
 457              		.section	.text.react_to_keypad,"ax",%progbits
 458              		.align	2
 459              		.global	react_to_keypad
 460              		.thumb
 461              		.thumb_func
 462              		.type	react_to_keypad, %function
 463              	react_to_keypad:
 464              	.LFB74:
 119:functions.c   ****     uint8_t value = keypadScan();
 465              		.loc 1 119 0
 466              		.cfi_startproc
ARM GAS  C:\Users\raphu\AppData\Local\Temp\ccyybXpb.s 			page 12


 467              		@ args = 0, pretend = 0, frame = 0
 468              		@ frame_needed = 0, uses_anonymous_args = 0
 469 0000 08B5     		push	{r3, lr}
 470              		.cfi_def_cfa_offset 8
 471              		.cfi_offset 3, -8
 472              		.cfi_offset 14, -4
 120:functions.c   ****     if (value != 'z'){
 473              		.loc 1 120 0
 474 0002 FFF7FEFF 		bl	keypadScan
 475              	.LVL50:
 121:functions.c   ****         if ( value == '1'){
 476              		.loc 1 121 0
 477 0006 7A28     		cmp	r0, #122
 478 0008 1CD0     		beq	.L39
 122:functions.c   ****             CyDelay(200);
 479              		.loc 1 122 0
 480 000a 3128     		cmp	r0, #49
 481 000c 05D1     		bne	.L41
 123:functions.c   ****             switch_mode();
 482              		.loc 1 123 0
 483 000e C820     		movs	r0, #200
 484              	.LVL51:
 485 0010 FFF7FEFF 		bl	CyDelay
 486              	.LVL52:
 124:functions.c   ****         } 
 487              		.loc 1 124 0
 488 0014 FFF7FEFF 		bl	switch_mode
 489              	.LVL53:
 490 0018 08BD     		pop	{r3, pc}
 491              	.LVL54:
 492              	.L41:
 126:functions.c   ****             if (value == '2'){
 493              		.loc 1 126 0
 494 001a 0B4B     		ldr	r3, .L44
 495 001c 1B68     		ldr	r3, [r3]
 496 001e 8BB9     		cbnz	r3, .L39
 126:functions.c   ****             if (value == '2'){
 497              		.loc 1 126 0 is_stmt 0 discriminator 1
 498 0020 094B     		ldr	r3, .L44
 499 0022 5B68     		ldr	r3, [r3, #4]
 500 0024 73B9     		cbnz	r3, .L39
 127:functions.c   ****                 CyDelay(100);
 501              		.loc 1 127 0 is_stmt 1
 502 0026 3228     		cmp	r0, #50
 503 0028 05D1     		bne	.L42
 128:functions.c   ****                 rotate_left();
 504              		.loc 1 128 0
 505 002a 6420     		movs	r0, #100
 506              	.LVL55:
 507 002c FFF7FEFF 		bl	CyDelay
 508              	.LVL56:
 129:functions.c   ****             }
 509              		.loc 1 129 0
 510 0030 FFF7FEFF 		bl	rotate_left
 511              	.LVL57:
 512 0034 08BD     		pop	{r3, pc}
 513              	.LVL58:
ARM GAS  C:\Users\raphu\AppData\Local\Temp\ccyybXpb.s 			page 13


 514              	.L42:
 131:functions.c   ****                 CyDelay(100);
 515              		.loc 1 131 0
 516 0036 3328     		cmp	r0, #51
 517 0038 04D1     		bne	.L39
 132:functions.c   ****                 rotate_right();
 518              		.loc 1 132 0
 519 003a 6420     		movs	r0, #100
 520              	.LVL59:
 521 003c FFF7FEFF 		bl	CyDelay
 522              	.LVL60:
 133:functions.c   ****             }
 523              		.loc 1 133 0
 524 0040 FFF7FEFF 		bl	rotate_right
 525              	.LVL61:
 526              	.L39:
 527 0044 08BD     		pop	{r3, pc}
 528              	.L45:
 529 0046 00BF     		.align	2
 530              	.L44:
 531 0048 00000000 		.word	.LANCHOR0
 532              		.cfi_endproc
 533              	.LFE74:
 534              		.size	react_to_keypad, .-react_to_keypad
 535              		.section	.text.read_SW2,"ax",%progbits
 536              		.align	2
 537              		.global	read_SW2
 538              		.thumb
 539              		.thumb_func
 540              		.type	read_SW2, %function
 541              	read_SW2:
 542              	.LFB69:
  61:functions.c   ****     if (!mode && SW2_Read()){
 543              		.loc 1 61 0
 544              		.cfi_startproc
 545              		@ args = 0, pretend = 0, frame = 0
 546              		@ frame_needed = 0, uses_anonymous_args = 0
 547 0000 08B5     		push	{r3, lr}
 548              		.cfi_def_cfa_offset 8
 549              		.cfi_offset 3, -8
 550              		.cfi_offset 14, -4
  62:functions.c   ****         CyDelay(200);
 551              		.loc 1 62 0
 552 0002 0D4B     		ldr	r3, .L50
 553 0004 1B68     		ldr	r3, [r3]
 554 0006 B3B9     		cbnz	r3, .L46
  62:functions.c   ****         CyDelay(200);
 555              		.loc 1 62 0 is_stmt 0 discriminator 1
 556 0008 FFF7FEFF 		bl	SW2_Read
 557              	.LVL62:
 558 000c 98B1     		cbz	r0, .L46
  63:functions.c   ****         if (test_mode) {
 559              		.loc 1 63 0 is_stmt 1
 560 000e C820     		movs	r0, #200
 561 0010 FFF7FEFF 		bl	CyDelay
 562              	.LVL63:
  64:functions.c   ****             test_mode = 0;
ARM GAS  C:\Users\raphu\AppData\Local\Temp\ccyybXpb.s 			page 14


 563              		.loc 1 64 0
 564 0014 084B     		ldr	r3, .L50
 565 0016 5B68     		ldr	r3, [r3, #4]
 566 0018 33B1     		cbz	r3, .L48
 567              	.LBB2:
  65:functions.c   ****             const char8* var = "keypad";
 568              		.loc 1 65 0
 569 001a 0022     		movs	r2, #0
 570 001c 064B     		ldr	r3, .L50
 571 001e 5A60     		str	r2, [r3, #4]
 572              	.LVL64:
  67:functions.c   ****         }
 573              		.loc 1 67 0
 574 0020 0648     		ldr	r0, .L50+4
 575 0022 FFF7FEFF 		bl	print_screen
 576              	.LVL65:
 577              	.LBE2:
 578 0026 08BD     		pop	{r3, pc}
 579              	.LVL66:
 580              	.L48:
  69:functions.c   ****             test_mode = 1;
 581              		.loc 1 69 0
 582 0028 2BB9     		cbnz	r3, .L46
 583              	.LBB3:
  70:functions.c   ****             const char8* var = "pot";
 584              		.loc 1 70 0
 585 002a 0122     		movs	r2, #1
 586 002c 024B     		ldr	r3, .L50
 587 002e 5A60     		str	r2, [r3, #4]
 588              	.LVL67:
  72:functions.c   ****         } 
 589              		.loc 1 72 0
 590 0030 0348     		ldr	r0, .L50+8
 591 0032 FFF7FEFF 		bl	print_screen
 592              	.LVL68:
 593              	.L46:
 594 0036 08BD     		pop	{r3, pc}
 595              	.L51:
 596              		.align	2
 597              	.L50:
 598 0038 00000000 		.word	.LANCHOR0
 599 003c 18000000 		.word	.LC3
 600 0040 20000000 		.word	.LC4
 601              	.LBE3:
 602              		.cfi_endproc
 603              	.LFE69:
 604              		.size	read_SW2, .-read_SW2
 605              		.global	__aeabi_ui2f
 606              		.global	__aeabi_fdiv
 607              		.global	__aeabi_fadd
 608              		.global	__aeabi_f2uiz
 609              		.section	.text.testing_mode,"ax",%progbits
 610              		.align	2
 611              		.global	testing_mode
 612              		.thumb
 613              		.thumb_func
 614              		.type	testing_mode, %function
ARM GAS  C:\Users\raphu\AppData\Local\Temp\ccyybXpb.s 			page 15


 615              	testing_mode:
 616              	.LFB76:
 143:functions.c   **** }
 144:functions.c   **** 
 145:functions.c   **** 
 146:functions.c   **** void testing_mode(){
 617              		.loc 1 146 0
 618              		.cfi_startproc
 619              		@ args = 0, pretend = 0, frame = 0
 620              		@ frame_needed = 0, uses_anonymous_args = 0
 621 0000 08B5     		push	{r3, lr}
 622              		.cfi_def_cfa_offset 8
 623              		.cfi_offset 3, -8
 624              		.cfi_offset 14, -4
 147:functions.c   ****     if (!test_mode) return;
 625              		.loc 1 147 0
 626 0002 144B     		ldr	r3, .L57
 627 0004 5B68     		ldr	r3, [r3, #4]
 628 0006 1BB3     		cbz	r3, .L52
 629              	.LVL69:
 148:functions.c   ****     uint32_t potval = 0;
 149:functions.c   ****     Mux_Select(0);
 630              		.loc 1 149 0
 631 0008 0020     		movs	r0, #0
 632 000a FFF7FEFF 		bl	Mux_Select
 633              	.LVL70:
 150:functions.c   ****     CyDelay(10);
 634              		.loc 1 150 0
 635 000e 0A20     		movs	r0, #10
 636 0010 FFF7FEFF 		bl	CyDelay
 637              	.LVL71:
 151:functions.c   ****     ADC_StartConvert();
 638              		.loc 1 151 0
 639 0014 FFF7FEFF 		bl	ADC_StartConvert
 640              	.LVL72:
 152:functions.c   ****     if (ADC_IsEndConversion(ADC_WAIT_FOR_RESULT))  potval = ADC_GetResult32();
 641              		.loc 1 152 0
 642 0018 0020     		movs	r0, #0
 643 001a FFF7FEFF 		bl	ADC_IsEndConversion
 644              	.LVL73:
 645 001e 10B1     		cbz	r0, .L55
 646              		.loc 1 152 0 is_stmt 0 discriminator 1
 647 0020 FFF7FEFF 		bl	ADC_GetResult32
 648              	.LVL74:
 649 0024 00E0     		b	.L54
 650              	.LVL75:
 651              	.L55:
 148:functions.c   ****     Mux_Select(0);
 652              		.loc 1 148 0 is_stmt 1
 653 0026 0020     		movs	r0, #0
 654              	.LVL76:
 655              	.L54:
 153:functions.c   ****     potval = MIN_SERVO + (potval*(MAX_SERVO-MIN_SERVO))/(float)(0xFFFF); // transférer le max du p
 656              		.loc 1 153 0
 657 0028 4FF4FB63 		mov	r3, #2008
 658 002c 03FB00F0 		mul	r0, r3, r0
 659              	.LVL77:
ARM GAS  C:\Users\raphu\AppData\Local\Temp\ccyybXpb.s 			page 16


 660 0030 FFF7FEFF 		bl	__aeabi_ui2f
 661              	.LVL78:
 662 0034 0849     		ldr	r1, .L57+4
 663 0036 FFF7FEFF 		bl	__aeabi_fdiv
 664              	.LVL79:
 665 003a 0849     		ldr	r1, .L57+8
 666 003c FFF7FEFF 		bl	__aeabi_fadd
 667              	.LVL80:
 668 0040 FFF7FEFF 		bl	__aeabi_f2uiz
 669              	.LVL81:
 154:functions.c   ****     PWM_WriteCompare(potval);
 670              		.loc 1 154 0
 671 0044 80B2     		uxth	r0, r0
 672              	.LVL82:
 673 0046 FFF7FEFF 		bl	PWM_WriteCompare
 674              	.LVL83:
 155:functions.c   ****     CyDelay(50);
 675              		.loc 1 155 0
 676 004a 3220     		movs	r0, #50
 677 004c FFF7FEFF 		bl	CyDelay
 678              	.LVL84:
 679              	.L52:
 680 0050 08BD     		pop	{r3, pc}
 681              	.L58:
 682 0052 00BF     		.align	2
 683              	.L57:
 684 0054 00000000 		.word	.LANCHOR0
 685 0058 00FF7F47 		.word	1199570688
 686 005c 0000FA43 		.word	1140457472
 687              		.cfi_endproc
 688              	.LFE76:
 689              		.size	testing_mode, .-testing_mode
 690              		.section	.text.glimball_mode,"ax",%progbits
 691              		.align	2
 692              		.global	glimball_mode
 693              		.thumb
 694              		.thumb_func
 695              		.type	glimball_mode, %function
 696              	glimball_mode:
 697              	.LFB77:
 156:functions.c   **** }
 157:functions.c   **** 
 158:functions.c   **** 
 159:functions.c   **** void glimball_mode(){
 698              		.loc 1 159 0
 699              		.cfi_startproc
 700              		@ args = 0, pretend = 0, frame = 0
 701              		@ frame_needed = 0, uses_anonymous_args = 0
 702 0000 10B5     		push	{r4, lr}
 703              		.cfi_def_cfa_offset 8
 704              		.cfi_offset 4, -8
 705              		.cfi_offset 14, -4
 706              	.LVL85:
 160:functions.c   ****     uint32_t x,y,z = 0;
 161:functions.c   ****     
 162:functions.c   ****     Mux_Select(1); //Selection du premier channel
 707              		.loc 1 162 0
ARM GAS  C:\Users\raphu\AppData\Local\Temp\ccyybXpb.s 			page 17


 708 0002 0120     		movs	r0, #1
 709 0004 FFF7FEFF 		bl	Mux_Select
 710              	.LVL86:
 163:functions.c   ****     CyDelay(10);
 711              		.loc 1 163 0
 712 0008 0A20     		movs	r0, #10
 713 000a FFF7FEFF 		bl	CyDelay
 714              	.LVL87:
 164:functions.c   ****     ADC_StartConvert();
 715              		.loc 1 164 0
 716 000e FFF7FEFF 		bl	ADC_StartConvert
 717              	.LVL88:
 165:functions.c   ****     if (ADC_IsEndConversion(ADC_WAIT_FOR_RESULT))  x = ADC_GetResult32();
 718              		.loc 1 165 0
 719 0012 0020     		movs	r0, #0
 720 0014 FFF7FEFF 		bl	ADC_IsEndConversion
 721              	.LVL89:
 722 0018 10B1     		cbz	r0, .L60
 723              		.loc 1 165 0 is_stmt 0 discriminator 1
 724 001a FFF7FEFF 		bl	ADC_GetResult32
 725              	.LVL90:
 726 001e 0446     		mov	r4, r0
 727              	.LVL91:
 728              	.L60:
 166:functions.c   ****     Mux_Select(2); ///Selection du 2eme channel
 729              		.loc 1 166 0 is_stmt 1
 730 0020 0220     		movs	r0, #2
 731 0022 FFF7FEFF 		bl	Mux_Select
 732              	.LVL92:
 167:functions.c   ****     CyDelay(10);
 733              		.loc 1 167 0
 734 0026 0A20     		movs	r0, #10
 735 0028 FFF7FEFF 		bl	CyDelay
 736              	.LVL93:
 168:functions.c   ****     ADC_StartConvert();
 737              		.loc 1 168 0
 738 002c FFF7FEFF 		bl	ADC_StartConvert
 739              	.LVL94:
 169:functions.c   ****     if (ADC_IsEndConversion(ADC_WAIT_FOR_RESULT))  y = ADC_GetResult32();
 740              		.loc 1 169 0
 741 0030 0020     		movs	r0, #0
 742 0032 FFF7FEFF 		bl	ADC_IsEndConversion
 743              	.LVL95:
 744 0036 08B1     		cbz	r0, .L61
 745              		.loc 1 169 0 is_stmt 0 discriminator 1
 746 0038 FFF7FEFF 		bl	ADC_GetResult32
 747              	.LVL96:
 748              	.L61:
 170:functions.c   ****     Mux_Select(3); //Selection du 3eme channel
 749              		.loc 1 170 0 is_stmt 1
 750 003c 0320     		movs	r0, #3
 751 003e FFF7FEFF 		bl	Mux_Select
 752              	.LVL97:
 171:functions.c   ****     CyDelay(10);
 753              		.loc 1 171 0
 754 0042 0A20     		movs	r0, #10
 755 0044 FFF7FEFF 		bl	CyDelay
ARM GAS  C:\Users\raphu\AppData\Local\Temp\ccyybXpb.s 			page 18


 756              	.LVL98:
 172:functions.c   ****     ADC_StartConvert();
 757              		.loc 1 172 0
 758 0048 FFF7FEFF 		bl	ADC_StartConvert
 759              	.LVL99:
 173:functions.c   ****     if (ADC_IsEndConversion(ADC_WAIT_FOR_RESULT))  z = ADC_GetResult32();
 760              		.loc 1 173 0
 761 004c 0020     		movs	r0, #0
 762 004e FFF7FEFF 		bl	ADC_IsEndConversion
 763              	.LVL100:
 764 0052 08B1     		cbz	r0, .L62
 765              		.loc 1 173 0 is_stmt 0 discriminator 1
 766 0054 FFF7FEFF 		bl	ADC_GetResult32
 767              	.LVL101:
 768              	.L62:
 174:functions.c   ****     
 175:functions.c   ****     LCD_ClearDisplay();
 769              		.loc 1 175 0 is_stmt 1
 770 0058 0120     		movs	r0, #1
 771 005a FFF7FEFF 		bl	LCD_WriteControl
 772              	.LVL102:
 176:functions.c   ****     LCD_Position(0,0);
 773              		.loc 1 176 0
 774 005e 0021     		movs	r1, #0
 775 0060 0846     		mov	r0, r1
 776 0062 FFF7FEFF 		bl	LCD_Position
 777              	.LVL103:
 177:functions.c   ****     //Conversion des resultats
 178:functions.c   ****     x = (x*3000/(0xFFFF)); //Donner la valeur entre 0 et 3000 mV
 778              		.loc 1 178 0
 779 0066 40F6B830 		movw	r0, #3000
 780 006a 00FB04F0 		mul	r0, r0, r4
 781 006e 054B     		ldr	r3, .L64
 782 0070 A3FB0030 		umull	r3, r0, r3, r0
 783              	.LVL104:
 179:functions.c   ****     y = (y*3000/(0xFFFF));
 180:functions.c   ****     z = (z*3000/(0xFFFF));
 181:functions.c   ****     //Arrondi des valeures
 182:functions.c   ****     float x_print = x / 1000.0;
 183:functions.c   ****     float y_print = y / 1000.0;
 184:functions.c   ****     float z_print = z / 1000.0;
 185:functions.c   ****     
 186:functions.c   ****     LCD_PrintNumber(x);
 784              		.loc 1 186 0
 785 0074 C0F3CF30 		ubfx	r0, r0, #15, #16
 786              	.LVL105:
 787 0078 FFF7FEFF 		bl	LCD_PrintU32Number
 788              	.LVL106:
 187:functions.c   ****     LCD_PrintString(" mV");
 789              		.loc 1 187 0
 790 007c 0248     		ldr	r0, .L64+4
 791 007e FFF7FEFF 		bl	LCD_PrintString
 792              	.LVL107:
 793 0082 10BD     		pop	{r4, pc}
 794              	.LVL108:
 795              	.L65:
 796              		.align	2
ARM GAS  C:\Users\raphu\AppData\Local\Temp\ccyybXpb.s 			page 19


 797              	.L64:
 798 0084 01800080 		.word	-2147450879
 799 0088 24000000 		.word	.LC5
 800              		.cfi_endproc
 801              	.LFE77:
 802              		.size	glimball_mode, .-glimball_mode
 803              		.section	.text.react,"ax",%progbits
 804              		.align	2
 805              		.global	react
 806              		.thumb
 807              		.thumb_func
 808              		.type	react, %function
 809              	react:
 810              	.LFB78:
 188:functions.c   ****     //LCD_PrintNumber(y);
 189:functions.c   ****     //LCD_PrintString(" ");
 190:functions.c   ****     //LCD_PrintNumber(z);
 191:functions.c   ****    
 192:functions.c   **** }
 193:functions.c   **** 
 194:functions.c   **** 
 195:functions.c   **** void react(){
 811              		.loc 1 195 0
 812              		.cfi_startproc
 813              		@ args = 0, pretend = 0, frame = 0
 814              		@ frame_needed = 0, uses_anonymous_args = 0
 815 0000 08B5     		push	{r3, lr}
 816              		.cfi_def_cfa_offset 8
 817              		.cfi_offset 3, -8
 818              		.cfi_offset 14, -4
 196:functions.c   ****     react_to_keypad();
 819              		.loc 1 196 0
 820 0002 FFF7FEFF 		bl	react_to_keypad
 821              	.LVL109:
 197:functions.c   ****     read_SW1();
 822              		.loc 1 197 0
 823 0006 FFF7FEFF 		bl	read_SW1
 824              	.LVL110:
 198:functions.c   ****     if (!mode) read_SW2();
 825              		.loc 1 198 0
 826 000a 034B     		ldr	r3, .L69
 827 000c 1B68     		ldr	r3, [r3]
 828 000e 0BB9     		cbnz	r3, .L66
 829              		.loc 1 198 0 is_stmt 0 discriminator 1
 830 0010 FFF7FEFF 		bl	read_SW2
 831              	.LVL111:
 832              	.L66:
 833 0014 08BD     		pop	{r3, pc}
 834              	.L70:
 835 0016 00BF     		.align	2
 836              	.L69:
 837 0018 00000000 		.word	.LANCHOR0
 838              		.cfi_endproc
 839              	.LFE78:
 840              		.size	react, .-react
 841              		.section	.text.modes,"ax",%progbits
 842              		.align	2
ARM GAS  C:\Users\raphu\AppData\Local\Temp\ccyybXpb.s 			page 20


 843              		.global	modes
 844              		.thumb
 845              		.thumb_func
 846              		.type	modes, %function
 847              	modes:
 848              	.LFB79:
 199:functions.c   **** }
 200:functions.c   **** 
 201:functions.c   **** void modes(){   
 849              		.loc 1 201 0 is_stmt 1
 850              		.cfi_startproc
 851              		@ args = 0, pretend = 0, frame = 0
 852              		@ frame_needed = 0, uses_anonymous_args = 0
 853 0000 08B5     		push	{r3, lr}
 854              		.cfi_def_cfa_offset 8
 855              		.cfi_offset 3, -8
 856              		.cfi_offset 14, -4
 202:functions.c   ****    if (!mode){
 857              		.loc 1 202 0
 858 0002 044B     		ldr	r3, .L75
 859 0004 1B68     		ldr	r3, [r3]
 860 0006 13B9     		cbnz	r3, .L72
 203:functions.c   ****         testing_mode();
 861              		.loc 1 203 0
 862 0008 FFF7FEFF 		bl	testing_mode
 863              	.LVL112:
 864 000c 08BD     		pop	{r3, pc}
 865              	.L72:
 204:functions.c   ****     }
 205:functions.c   ****     else{
 206:functions.c   ****         glimball_mode();
 866              		.loc 1 206 0
 867 000e FFF7FEFF 		bl	glimball_mode
 868              	.LVL113:
 869 0012 08BD     		pop	{r3, pc}
 870              	.L76:
 871              		.align	2
 872              	.L75:
 873 0014 00000000 		.word	.LANCHOR0
 874              		.cfi_endproc
 875              	.LFE79:
 876              		.size	modes, .-modes
 877              		.global	test_mode
 878              		.global	mode
 879              		.section	.rodata.str1.4,"aMS",%progbits,1
 880              		.align	2
 881              	.LC0:
 882 0000 4552524F 		.ascii	"ERROR\000"
 882      5200
 883 0006 0000     		.space	2
 884              	.LC1:
 885 0008 476C696D 		.ascii	"Glim\000"
 885      00
 886 000d 000000   		.space	3
 887              	.LC2:
 888 0010 54657374 		.ascii	"Test\000"
 888      00
ARM GAS  C:\Users\raphu\AppData\Local\Temp\ccyybXpb.s 			page 21


 889 0015 000000   		.space	3
 890              	.LC3:
 891 0018 6B657970 		.ascii	"keypad\000"
 891      616400
 892 001f 00       		.space	1
 893              	.LC4:
 894 0020 706F7400 		.ascii	"pot\000"
 895              	.LC5:
 896 0024 206D5600 		.ascii	" mV\000"
 897              		.bss
 898              		.align	2
 899              		.set	.LANCHOR0,. + 0
 900              		.type	mode, %object
 901              		.size	mode, 4
 902              	mode:
 903 0000 00000000 		.space	4
 904              		.type	test_mode, %object
 905              		.size	test_mode, 4
 906              	test_mode:
 907 0004 00000000 		.space	4
 908              		.text
 909              	.Letext0:
 910              		.file 2 "c:\\program files (x86)\\cypress\\psoc creator\\4.4\\psoc creator\\import\\gnu\\arm\\5.4.
 911              		.file 3 "c:\\program files (x86)\\cypress\\psoc creator\\4.4\\psoc creator\\import\\gnu\\arm\\5.4.
 912              		.file 4 "Generated_Source\\PSoC5/cytypes.h"
 913              		.file 5 "Generated_Source\\PSoC5/core_cm3.h"
 914              		.file 6 "Generated_Source\\PSoC5/LCD.h"
 915              		.file 7 "Generated_Source\\PSoC5/PWM.h"
 916              		.file 8 "Generated_Source\\PSoC5/Mux.h"
 917              		.file 9 "Generated_Source\\PSoC5/ADC.h"
 918              		.file 10 "keypad.h"
 919              		.file 11 "Generated_Source\\PSoC5/LED1.h"
 920              		.file 12 "Generated_Source\\PSoC5/LED2.h"
 921              		.file 13 "Generated_Source\\PSoC5/LED3.h"
 922              		.file 14 "Generated_Source\\PSoC5/LED4.h"
 923              		.file 15 "Generated_Source\\PSoC5/CyLib.h"
 924              		.file 16 "Generated_Source\\PSoC5/SW1.h"
 925              		.file 17 "Generated_Source\\PSoC5/SW2.h"